; Function Attrs: nounwind uwtable
define ptr @l_Lean_IR_NormalizeIds_normArg(ptr noundef %0, ptr noundef %1) local_unnamed_addr #0 {
  %3 = ptrtoint ptr %0 to i64
  %4 = and i64 %3, 1
  %.not.i26 = icmp eq i64 %4, 0
  br i1 %.not.i26, label %8, label %5

5:                                                ; preds = %2
  %6 = lshr i64 %3, 1
  %7 = trunc i64 %6 to i32
  br label %lean_obj_tag.exit

8:                                                ; preds = %2
  %9 = getelementptr i8, ptr %0, i64 4
  %.val.i = load i32, ptr %9, align 4
  %10 = lshr i32 %.val.i, 24
  br label %lean_obj_tag.exit

lean_obj_tag.exit:                                ; preds = %5, %8
  %.0.i = phi i32 [ %7, %5 ], [ %10, %8 ]
  %11 = icmp eq i32 %.0.i, 0
  br i1 %11, label %12, label %56

12:                                               ; preds = %lean_obj_tag.exit
  %.val = load i32, ptr %0, align 4, !tbaa !9
  %13 = icmp eq i32 %.val, 1
  %14 = getelementptr inbounds nuw i8, ptr %0, i64 8
  %15 = load ptr, ptr %14, align 8, !tbaa !5
  br i1 %13, label %16, label %27

16:                                               ; preds = %12
  %17 = tail call ptr @l_Lean_IR_NormalizeIds_normIndex(ptr noundef %15, ptr noundef %1)
  %18 = ptrtoint ptr %15 to i64
  %19 = and i64 %18, 1
  %.not30 = icmp eq i64 %19, 0
  br i1 %.not30, label %20, label %lean_dec.exit21

20:                                               ; preds = %16
  %21 = load i32, ptr %15, align 4, !tbaa !9
  %22 = icmp sgt i32 %21, 1
  br i1 %22, label %23, label %25, !prof !12

23:                                               ; preds = %20
  %24 = add nsw i32 %21, -1
  store i32 %24, ptr %15, align 4, !tbaa !9
  br label %lean_dec.exit21

25:                                               ; preds = %20
  %.not.i = icmp eq i32 %21, 0
  br i1 %.not.i, label %lean_dec.exit21, label %26

26:                                               ; preds = %25
  tail call void @lean_dec_ref_cold(ptr noundef nonnull %15) #4
  br label %lean_dec.exit21

lean_dec.exit21:                                  ; preds = %26, %25, %23, %16
  store ptr %17, ptr %14, align 8, !tbaa !5
  br label %56

27:                                               ; preds = %12
  %28 = ptrtoint ptr %15 to i64
  %29 = and i64 %28, 1
  %.not = icmp eq i64 %29, 0
  br i1 %.not, label %30, label %lean_inc.exit

30:                                               ; preds = %27
  %.val.i27 = load i32, ptr %15, align 4, !tbaa !9
  %31 = icmp sgt i32 %.val.i27, 0
  br i1 %31, label %32, label %34, !prof !12

32:                                               ; preds = %30
  %33 = add nuw i32 %.val.i27, 1
  store i32 %33, ptr %15, align 4, !tbaa !9
  br label %lean_inc.exit

34:                                               ; preds = %30
  %.not.i28 = icmp eq i32 %.val.i27, 0
  br i1 %.not.i28, label %lean_inc.exit, label %35

35:                                               ; preds = %34
  tail call void @lean_inc_ref_cold(ptr noundef nonnull %15) #4
  br label %lean_inc.exit

lean_inc.exit:                                    ; preds = %35, %34, %32, %27
  br i1 %.not.i26, label %36, label %lean_dec.exit20

36:                                               ; preds = %lean_inc.exit
  %37 = load i32, ptr %0, align 4, !tbaa !9
  %38 = icmp sgt i32 %37, 1
  br i1 %38, label %39, label %41, !prof !12

39:                                               ; preds = %36
  %40 = add nsw i32 %37, -1
  store i32 %40, ptr %0, align 4, !tbaa !9
  br label %lean_dec.exit20

41:                                               ; preds = %36
  %.not.i22 = icmp eq i32 %37, 0
  br i1 %.not.i22, label %lean_dec.exit20, label %42

42:                                               ; preds = %41
  tail call void @lean_dec_ref_cold(ptr noundef nonnull %0) #4
  br label %lean_dec.exit20

lean_dec.exit20:                                  ; preds = %42, %41, %39, %lean_inc.exit
  %43 = tail call ptr @l_Lean_IR_NormalizeIds_normIndex(ptr noundef %15, ptr noundef %1)
  br i1 %.not, label %44, label %lean_dec.exit

44:                                               ; preds = %lean_dec.exit20
  %45 = load i32, ptr %15, align 4, !tbaa !9
  %46 = icmp sgt i32 %45, 1
  br i1 %46, label %47, label %49, !prof !12

47:                                               ; preds = %44
  %48 = add nsw i32 %45, -1
  store i32 %48, ptr %15, align 4, !tbaa !9
  br label %lean_dec.exit

49:                                               ; preds = %44
  %.not.i24 = icmp eq i32 %45, 0
  br i1 %.not.i24, label %lean_dec.exit, label %50

50:                                               ; preds = %49
  tail call void @lean_dec_ref_cold(ptr noundef nonnull %15) #4
  br label %lean_dec.exit

lean_dec.exit:                                    ; preds = %50, %49, %47, %lean_dec.exit20
  tail call void @lean_inc_heartbeat() #4
  %51 = tail call noalias ptr @mi_malloc_small(i64 noundef 16) #4
  %52 = icmp eq ptr %51, null
  br i1 %52, label %53, label %lean_alloc_ctor.exit

53:                                               ; preds = %lean_dec.exit
  tail call void @lean_internal_panic_out_of_memory() #5
  unreachable

lean_alloc_ctor.exit:                             ; preds = %lean_dec.exit
  %54 = getelementptr inbounds nuw i8, ptr %51, i64 4
  store i32 1, ptr %51, align 4, !tbaa !9
  store i32 65552, ptr %54, align 4
  %55 = getelementptr inbounds nuw i8, ptr %51, i64 8
  store ptr %43, ptr %55, align 8, !tbaa !5
  br label %56

56:                                               ; preds = %lean_obj_tag.exit, %lean_dec.exit21, %lean_alloc_ctor.exit
  %.1 = phi ptr [ %0, %lean_dec.exit21 ], [ %51, %lean_alloc_ctor.exit ], [ %0, %lean_obj_tag.exit ]
  ret ptr %.1
}